; ModuleID = '29/1831.c'
source_filename = "29/1831.c"
target datalayout = "e-m:e-p270:32:32-p271:32:32-p272:64:64-i64:64-f80:128-n8:16:32:64-S128"
target triple = "x86_64-pc-linux-gnu"

@.str = private unnamed_addr constant [3 x i8] c"%d\00", align 1
@.str.1 = private unnamed_addr constant [6 x i8] c"%.3f\0A\00", align 1

; Function Attrs: noinline nounwind uwtable
define dso_local i32 @main() #0 {
  %1 = alloca i32, align 4
  %2 = alloca [100 x float], align 16
  %3 = alloca [100 x float], align 16
  %4 = alloca i32, align 4
  %5 = alloca i32, align 4
  %6 = alloca i32, align 4
  %7 = alloca i32, align 4
  %8 = alloca float, align 4
  %9 = alloca i32, align 4
  store i32 0, i32* %1, align 4
  %10 = getelementptr inbounds [100 x float], [100 x float]* %2, i64 0, i64 0
  store float 2.000000e+00, float* %10, align 16
  %11 = getelementptr inbounds [100 x float], [100 x float]* %2, i64 0, i64 1
  store float 3.000000e+00, float* %11, align 4
  %12 = getelementptr inbounds [100 x float], [100 x float]* %3, i64 0, i64 0
  store float 1.000000e+00, float* %12, align 16
  %13 = getelementptr inbounds [100 x float], [100 x float]* %3, i64 0, i64 1
  store float 2.000000e+00, float* %13, align 4
  store i32 2, i32* %4, align 4
  br label %14

14:                                               ; preds = %46, %0
  %15 = load i32, i32* %4, align 4
  %16 = icmp slt i32 %15, 100
  br i1 %16, label %17, label %49

17:                                               ; preds = %14
  %18 = load i32, i32* %4, align 4
  %19 = sub nsw i32 %18, 1
  %20 = sext i32 %19 to i64
  %21 = getelementptr inbounds [100 x float], [100 x float]* %2, i64 0, i64 %20
  %22 = load float, float* %21, align 4
  %23 = load i32, i32* %4, align 4
  %24 = sub nsw i32 %23, 2
  %25 = sext i32 %24 to i64
  %26 = getelementptr inbounds [100 x float], [100 x float]* %2, i64 0, i64 %25
  %27 = load float, float* %26, align 4
  %28 = fadd float %22, %27
  %29 = load i32, i32* %4, align 4
  %30 = sext i32 %29 to i64
  %31 = getelementptr inbounds [100 x float], [100 x float]* %2, i64 0, i64 %30
  store float %28, float* %31, align 4
  %32 = load i32, i32* %4, align 4
  %33 = sub nsw i32 %32, 1
  %34 = sext i32 %33 to i64
  %35 = getelementptr inbounds [100 x float], [100 x float]* %3, i64 0, i64 %34
  %36 = load float, float* %35, align 4
  %37 = load i32, i32* %4, align 4
  %38 = sub nsw i32 %37, 2
  %39 = sext i32 %38 to i64
  %40 = getelementptr inbounds [100 x float], [100 x float]* %3, i64 0, i64 %39
  %41 = load float, float* %40, align 4
  %42 = fadd float %36, %41
  %43 = load i32, i32* %4, align 4
  %44 = sext i32 %43 to i64
  %45 = getelementptr inbounds [100 x float], [100 x float]* %3, i64 0, i64 %44
  store float %42, float* %45, align 4
  br label %46

46:                                               ; preds = %17
  %47 = load i32, i32* %4, align 4
  %48 = add nsw i32 %47, 1
  store i32 %48, i32* %4, align 4
  br label %14

49:                                               ; preds = %14
  %50 = call i32 (i8*, ...) @__isoc99_scanf(i8* getelementptr inbounds ([3 x i8], [3 x i8]* @.str, i64 0, i64 0), i32* %5)
  store i32 0, i32* %6, align 4
  br label %51

51:                                               ; preds = %80, %49
  %52 = load i32, i32* %6, align 4
  %53 = load i32, i32* %5, align 4
  %54 = icmp slt i32 %52, %53
  br i1 %54, label %55, label %83

55:                                               ; preds = %51
  %56 = call i32 (i8*, ...) @__isoc99_scanf(i8* getelementptr inbounds ([3 x i8], [3 x i8]* @.str, i64 0, i64 0), i32* %7)
  store float 0.000000e+00, float* %8, align 4
  store i32 0, i32* %9, align 4
  br label %57

57:                                               ; preds = %73, %55
  %58 = load i32, i32* %9, align 4
  %59 = load i32, i32* %7, align 4
  %60 = icmp slt i32 %58, %59
  br i1 %60, label %61, label %76

61:                                               ; preds = %57
  %62 = load i32, i32* %9, align 4
  %63 = sext i32 %62 to i64
  %64 = getelementptr inbounds [100 x float], [100 x float]* %2, i64 0, i64 %63
  %65 = load float, float* %64, align 4
  %66 = load i32, i32* %9, align 4
  %67 = sext i32 %66 to i64
  %68 = getelementptr inbounds [100 x float], [100 x float]* %3, i64 0, i64 %67
  %69 = load float, float* %68, align 4
  %70 = fdiv float %65, %69
  %71 = load float, float* %8, align 4
  %72 = fadd float %71, %70
  store float %72, float* %8, align 4
  br label %73

73:                                               ; preds = %61
  %74 = load i32, i32* %9, align 4
  %75 = add nsw i32 %74, 1
  store i32 %75, i32* %9, align 4
  br label %57

76:                                               ; preds = %57
  %77 = load float, float* %8, align 4
  %78 = fpext float %77 to double
  %79 = call i32 (i8*, ...) @printf(i8* getelementptr inbounds ([6 x i8], [6 x i8]* @.str.1, i64 0, i64 0), double %78)
  br label %80

80:                                               ; preds = %76
  %81 = load i32, i32* %6, align 4
  %82 = add nsw i32 %81, 1
  store i32 %82, i32* %6, align 4
  br label %51

83:                                               ; preds = %51
  ret i32 0
}

declare dso_local i32 @__isoc99_scanf(i8*, ...) #1

declare dso_local i32 @printf(i8*, ...) #1


!llvm.module.flags = !{!0}
!llvm.ident = !{!1}

!0 = !{i32 1, !"wchar_size", i32 4}
!1 = !{!"clang version 10.0.0-4ubuntu1 "}
